; Function Attrs: cold nounwind optsize uwtable
define internal noundef i32 @imc_decode_close(ptr noundef readonly captures(none) %0) #0 {
  %2 = getelementptr inbounds nuw i8, ptr %0, i64 32
  %3 = load ptr, ptr %2, align 8, !tbaa !4
  %4 = getelementptr inbounds nuw i8, ptr %3, i64 14264
  %5 = load ptr, ptr %4, align 8, !tbaa !42
  tail call void @av_free(ptr noundef %5) #10
  %6 = getelementptr inbounds nuw i8, ptr %3, i64 14288
  tail call void @av_tx_uninit(ptr noundef nonnull %6) #10
  ret i32 0
}